; ModuleID = '57/1533.c'
source_filename = "57/1533.c"
target datalayout = "e-m:e-p270:32:32-p271:32:32-p272:64:64-i64:64-f80:128-n8:16:32:64-S128"
target triple = "x86_64-pc-linux-gnu"

@.str = private unnamed_addr constant [3 x i8] c"%d\00", align 1
@.str.1 = private unnamed_addr constant [3 x i8] c"%s\00", align 1
@.str.2 = private unnamed_addr constant [4 x i8] c"%s\0A\00", align 1

; Function Attrs: noinline nounwind uwtable
define dso_local i32 @main() #0 {
  %1 = alloca i32, align 4
  %2 = alloca [20 x i8], align 16
  %3 = alloca i8*, align 8
  %4 = alloca i32, align 4
  %5 = alloca i32, align 4
  %6 = alloca i32, align 4
  store i32 0, i32* %1, align 4
  %7 = call i32 (i8*, ...) @__isoc99_scanf(i8* getelementptr inbounds ([3 x i8], [3 x i8]* @.str, i64 0, i64 0), i32* %4)
  store i32 0, i32* %5, align 4
  br label %8

8:                                                ; preds = %123, %0
  %9 = load i32, i32* %5, align 4
  %10 = load i32, i32* %4, align 4
  %11 = icmp slt i32 %9, %10
  br i1 %11, label %12, label %126

12:                                               ; preds = %8
  %13 = getelementptr inbounds [20 x i8], [20 x i8]* %2, i64 0, i64 0
  %14 = call i32 (i8*, ...) @__isoc99_scanf(i8* getelementptr inbounds ([3 x i8], [3 x i8]* @.str.1, i64 0, i64 0), i8* %13)
  %15 = getelementptr inbounds [20 x i8], [20 x i8]* %2, i64 0, i64 0
  store i8* %15, i8** %3, align 8
  %16 = getelementptr inbounds [20 x i8], [20 x i8]* %2, i64 0, i64 0
  %17 = call i64 @strlen(i8* %16) #3
  %18 = sub i64 %17, 1
  %19 = trunc i64 %18 to i32
  store i32 %19, i32* %6, align 4
  %20 = load i8*, i8** %3, align 8
  %21 = load i32, i32* %6, align 4
  %22 = sext i32 %21 to i64
  %23 = getelementptr inbounds i8, i8* %20, i64 %22
  %24 = load i8, i8* %23, align 1
  %25 = sext i8 %24 to i32
  %26 = icmp eq i32 %25, 114
  br i1 %26, label %27, label %47

27:                                               ; preds = %12
  %28 = load i8*, i8** %3, align 8
  %29 = load i32, i32* %6, align 4
  %30 = sext i32 %29 to i64
  %31 = getelementptr inbounds i8, i8* %28, i64 %30
  %32 = getelementptr inbounds i8, i8* %31, i64 -1
  %33 = load i8, i8* %32, align 1
  %34 = sext i8 %33 to i32
  %35 = icmp eq i32 %34, 101
  br i1 %35, label %36, label %46

36:                                               ; preds = %27
  %37 = load i8*, i8** %3, align 8
  %38 = load i32, i32* %6, align 4
  %39 = sext i32 %38 to i64
  %40 = getelementptr inbounds i8, i8* %37, i64 %39
  store i8 0, i8* %40, align 1
  %41 = load i8*, i8** %3, align 8
  %42 = load i32, i32* %6, align 4
  %43 = sext i32 %42 to i64
  %44 = getelementptr inbounds i8, i8* %41, i64 %43
  %45 = getelementptr inbounds i8, i8* %44, i64 -1
  store i8 0, i8* %45, align 1
  br label %46

46:                                               ; preds = %36, %27
  br label %120

47:                                               ; preds = %12
  %48 = load i8*, i8** %3, align 8
  %49 = load i32, i32* %6, align 4
  %50 = sext i32 %49 to i64
  %51 = getelementptr inbounds i8, i8* %48, i64 %50
  %52 = load i8, i8* %51, align 1
  %53 = sext i8 %52 to i32
  %54 = icmp eq i32 %53, 103
  br i1 %54, label %55, label %90

55:                                               ; preds = %47
  %56 = load i8*, i8** %3, align 8
  %57 = load i32, i32* %6, align 4
  %58 = sext i32 %57 to i64
  %59 = getelementptr inbounds i8, i8* %56, i64 %58
  %60 = getelementptr inbounds i8, i8* %59, i64 -1
  %61 = load i8, i8* %60, align 1
  %62 = sext i8 %61 to i32
  %63 = icmp eq i32 %62, 110
  br i1 %63, label %64, label %89

64:                                               ; preds = %55
  %65 = load i8*, i8** %3, align 8
  %66 = load i32, i32* %6, align 4
  %67 = sext i32 %66 to i64
  %68 = getelementptr inbounds i8, i8* %65, i64 %67
  %69 = getelementptr inbounds i8, i8* %68, i64 -2
  %70 = load i8, i8* %69, align 1
  %71 = sext i8 %70 to i32
  %72 = icmp eq i32 %71, 105
  br i1 %72, label %73, label %88

73:                                               ; preds = %64
  %74 = load i8*, i8** %3, align 8
  %75 = load i32, i32* %6, align 4
  %76 = sext i32 %75 to i64
  %77 = getelementptr inbounds i8, i8* %74, i64 %76
  store i8 0, i8* %77, align 1
  %78 = load i8*, i8** %3, align 8
  %79 = load i32, i32* %6, align 4
  %80 = sext i32 %79 to i64
  %81 = getelementptr inbounds i8, i8* %78, i64 %80
  %82 = getelementptr inbounds i8, i8* %81, i64 -1
  store i8 0, i8* %82, align 1
  %83 = load i8*, i8** %3, align 8
  %84 = load i32, i32* %6, align 4
  %85 = sext i32 %84 to i64
  %86 = getelementptr inbounds i8, i8* %83, i64 %85
  %87 = getelementptr inbounds i8, i8* %86, i64 -2
  store i8 0, i8* %87, align 1
  br label %88

88:                                               ; preds = %73, %64
  br label %89

89:                                               ; preds = %88, %55
  br label %119

90:                                               ; preds = %47
  %91 = load i8*, i8** %3, align 8
  %92 = load i32, i32* %6, align 4
  %93 = sext i32 %92 to i64
  %94 = getelementptr inbounds i8, i8* %91, i64 %93
  %95 = load i8, i8* %94, align 1
  %96 = sext i8 %95 to i32
  %97 = icmp eq i32 %96, 121
  br i1 %97, label %98, label %118

98:                                               ; preds = %90
  %99 = load i8*, i8** %3, align 8
  %100 = load i32, i32* %6, align 4
  %101 = sext i32 %100 to i64
  %102 = getelementptr inbounds i8, i8* %99, i64 %101
  %103 = getelementptr inbounds i8, i8* %102, i64 -1
  %104 = load i8, i8* %103, align 1
  %105 = sext i8 %104 to i32
  %106 = icmp eq i32 %105, 108
  br i1 %106, label %107, label %112

107:                                              ; preds = %98
  %108 = load i8*, i8** %3, align 8
  %109 = load i32, i32* %6, align 4
  %110 = sext i32 %109 to i64
  %111 = getelementptr inbounds i8, i8* %108, i64 %110
  store i8 0, i8* %111, align 1
  br label %112

112:                                              ; preds = %107, %98
  %113 = load i8*, i8** %3, align 8
  %114 = load i32, i32* %6, align 4
  %115 = sext i32 %114 to i64
  %116 = getelementptr inbounds i8, i8* %113, i64 %115
  %117 = getelementptr inbounds i8, i8* %116, i64 -1
  store i8 0, i8* %117, align 1
  br label %118

118:                                              ; preds = %112, %90
  br label %119

119:                                              ; preds = %118, %89
  br label %120

120:                                              ; preds = %119, %46
  %121 = load i8*, i8** %3, align 8
  %122 = call i32 (i8*, ...) @printf(i8* getelementptr inbounds ([4 x i8], [4 x i8]* @.str.2, i64 0, i64 0), i8* %121)
  br label %123

123:                                              ; preds = %120
  %124 = load i32, i32* %5, align 4
  %125 = add nsw i32 %124, 1
  store i32 %125, i32* %5, align 4
  br label %8

126:                                              ; preds = %8
  ret i32 0
}

declare dso_local i32 @__isoc99_scanf(i8*, ...) #1

; Function Attrs: nounwind readonly
declare dso_local i64 @strlen(i8*) #2

declare dso_local i32 @printf(i8*, ...) #1


!llvm.module.flags = !{!0}
!llvm.ident = !{!1}

!0 = !{i32 1, !"wchar_size", i32 4}
!1 = !{!"clang version 10.0.0-4ubuntu1 "}
