; ModuleID = 'source-C-CXX/56/1533.c'
source_filename = "source-C-CXX/56/1533.c"
target datalayout = "e-m:e-p270:32:32-p271:32:32-p272:64:64-i64:64-f80:128-n8:16:32:64-S128"
target triple = "x86_64-pc-linux-gnu"

@.str = private unnamed_addr constant [3 x i8] c"%d\00", align 1
@.str.1 = private unnamed_addr constant [3 x i8] c"%s\00", align 1

; Function Attrs: nofree nounwind sspstrong uwtable
define dso_local i32 @main() local_unnamed_addr #0 {
  %1 = alloca [20 x i8], align 16
  %2 = alloca i32, align 4
  %3 = getelementptr inbounds [20 x i8], [20 x i8]* %1, i64 0, i64 0
  call void @llvm.lifetime.start.p0i8(i64 20, i8* nonnull %3) #5
  %4 = bitcast i32* %2 to i8*
  call void @llvm.lifetime.start.p0i8(i64 4, i8* nonnull %4) #5
  %5 = call i32 (i8*, ...) @__isoc99_scanf(i8* getelementptr inbounds ([3 x i8], [3 x i8]* @.str, i64 0, i64 0), i32* nonnull %2)
  %6 = load i32, i32* %2, align 4, !tbaa !5
  %7 = icmp sgt i32 %6, 0
  br i1 %7, label %8, label %44

8:                                                ; preds = %0, %39
  %9 = phi i32 [ %41, %39 ], [ 0, %0 ]
  %10 = call i32 (i8*, ...) @__isoc99_scanf(i8* getelementptr inbounds ([3 x i8], [3 x i8]* @.str.1, i64 0, i64 0), i8* nonnull %3)
  %11 = call i64 @strlen(i8* noundef nonnull %3) #6
  %12 = shl i64 %11, 32
  %13 = add i64 %12, -4294967296
  %14 = ashr exact i64 %13, 32
  %15 = getelementptr inbounds [20 x i8], [20 x i8]* %1, i64 0, i64 %14
  %16 = load i8, i8* %15, align 1, !tbaa !9
  switch i8 %16, label %39 [
    i8 114, label %17
    i8 103, label %21
    i8 121, label %30
  ]

17:                                               ; preds = %8
  %18 = getelementptr inbounds i8, i8* %15, i64 -1
  %19 = load i8, i8* %18, align 1, !tbaa !9
  %20 = icmp eq i8 %19, 101
  br i1 %20, label %34, label %39

21:                                               ; preds = %8
  %22 = getelementptr inbounds i8, i8* %15, i64 -1
  %23 = load i8, i8* %22, align 1, !tbaa !9
  %24 = icmp eq i8 %23, 110
  br i1 %24, label %25, label %39

25:                                               ; preds = %21
  %26 = getelementptr inbounds i8, i8* %15, i64 -2
  %27 = load i8, i8* %26, align 1, !tbaa !9
  %28 = icmp eq i8 %27, 105
  br i1 %28, label %29, label %39

29:                                               ; preds = %25
  store i8 0, i8* %15, align 1, !tbaa !9
  br label %34

30:                                               ; preds = %8
  %31 = getelementptr inbounds i8, i8* %15, i64 -1
  %32 = load i8, i8* %31, align 1, !tbaa !9
  %33 = icmp eq i8 %32, 108
  br i1 %33, label %34, label %37

34:                                               ; preds = %30, %17, %29
  %35 = phi i8* [ %22, %29 ], [ %15, %17 ], [ %15, %30 ]
  %36 = phi i8* [ %26, %29 ], [ %18, %17 ], [ %31, %30 ]
  store i8 0, i8* %35, align 1, !tbaa !9
  br label %37

37:                                               ; preds = %34, %30
  %38 = phi i8* [ %31, %30 ], [ %36, %34 ]
  store i8 0, i8* %38, align 1, !tbaa !9
  br label %39

39:                                               ; preds = %37, %8, %25, %21, %17
  %40 = call i32 @puts(i8* nonnull %3)
  %41 = add nuw nsw i32 %9, 1
  %42 = load i32, i32* %2, align 4, !tbaa !5
  %43 = icmp slt i32 %41, %42
  br i1 %43, label %8, label %44, !llvm.loop !10

44:                                               ; preds = %39, %0
  call void @llvm.lifetime.end.p0i8(i64 4, i8* nonnull %4) #5
  call void @llvm.lifetime.end.p0i8(i64 20, i8* nonnull %3) #5
  ret i32 0
}

; Function Attrs: argmemonly mustprogress nofree nosync nounwind willreturn
declare void @llvm.lifetime.start.p0i8(i64 immarg, i8* nocapture) #1

; Function Attrs: nofree nounwind
declare noundef i32 @__isoc99_scanf(i8* nocapture noundef readonly, ...) local_unnamed_addr #2

; Function Attrs: argmemonly mustprogress nofree nounwind readonly willreturn
declare i64 @strlen(i8* nocapture) local_unnamed_addr #3

; Function Attrs: argmemonly mustprogress nofree nosync nounwind willreturn
declare void @llvm.lifetime.end.p0i8(i64 immarg, i8* nocapture) #1

; Function Attrs: nofree nounwind
declare noundef i32 @puts(i8* nocapture noundef readonly) local_unnamed_addr #4


!llvm.module.flags = !{!0, !1, !2, !3}
!llvm.ident = !{!4}

!0 = !{i32 1, !"wchar_size", i32 4}
!1 = !{i32 7, !"PIC Level", i32 2}
!2 = !{i32 7, !"PIE Level", i32 2}
!3 = !{i32 7, !"uwtable", i32 1}
!4 = !{!"clang version 13.0.0"}
!5 = !{!6, !6, i64 0}
!6 = !{!"int", !7, i64 0}
!7 = !{!"omnipotent char", !8, i64 0}
!8 = !{!"Simple C/C++ TBAA"}
!9 = !{!7, !7, i64 0}
!10 = distinct !{!10, !11}
!11 = !{!"llvm.loop.mustprogress"}
